target datalayout = "e-m:e-p270:32:32-p271:32:32-p272:64:64-i64:64-i128:128-f80:128-n8:16:32:64-S128"
target triple = "x86_64-unknown-linux-gnu"

%"class.cvc5::internal::NodeTemplate" = type { ptr }
%"class.cvc5::internal::NodeTemplate.218" = type { ptr }
%"struct.cvc5::internal::theory::arith::nl::SortNlModel" = type <{ ptr, i8, i8, i8, [5 x i8] }>

; Function Attrs: mustprogress nounwind uwtable
define linkonce_odr hidden void @_ZNK4cvc58internal12NodeTemplateILb1EE21assertTNodeNotExpiredEv(ptr noundef nonnull align 8 dereferenceable(8) %this) #5 comdat align 2 {
entry:
  %this.addr = alloca ptr, align 8
  store ptr %this, ptr %this.addr, align 8
  ret void
}

; Function Attrs: mustprogress uwtable
define linkonce_odr hidden noundef zeroext i1 @_ZNK4cvc58internal12NodeTemplateILb1EEltILb1EEEbRKNS1_IXT_EEE(ptr noundef nonnull align 8 dereferenceable(8) %this, ptr noundef nonnull align 8 dereferenceable(8) %node) #4 comdat align 2 {
entry:
  %this.addr = alloca ptr, align 8
  %node.addr = alloca ptr, align 8
  store ptr %this, ptr %this.addr, align 8
  store ptr %node, ptr %node.addr, align 8
  %this1 = load ptr, ptr %this.addr, align 8
  call void @_ZNK4cvc58internal12NodeTemplateILb1EE21assertTNodeNotExpiredEv(ptr noundef nonnull align 8 dereferenceable(8) %this1)
  %0 = load ptr, ptr %node.addr, align 8
  call void @_ZNK4cvc58internal12NodeTemplateILb1EE21assertTNodeNotExpiredEv(ptr noundef nonnull align 8 dereferenceable(8) %0)
  %d_nv = getelementptr inbounds %"class.cvc5::internal::NodeTemplate", ptr %this1, i32 0, i32 0
  %1 = load ptr, ptr %d_nv, align 8
  %bf.load = load i64, ptr %1, align 8
  %bf.clear = and i64 %bf.load, 1099511627775
  %2 = load ptr, ptr %node.addr, align 8
  %d_nv2 = getelementptr inbounds %"class.cvc5::internal::NodeTemplate", ptr %2, i32 0, i32 0
  %3 = load ptr, ptr %d_nv2, align 8
  %bf.load3 = load i64, ptr %3, align 8
  %bf.clear4 = and i64 %bf.load3, 1099511627775
  %cmp = icmp ult i64 %bf.clear, %bf.clear4
  ret i1 %cmp
}

; Function Attrs: mustprogress nounwind uwtable
define linkonce_odr hidden void @_ZN4cvc58internal12NodeTemplateILb0EED2Ev(ptr noundef nonnull align 8 dereferenceable(8) %this) unnamed_addr #5 comdat align 2 {
entry:
  %this.addr = alloca ptr, align 8
  store ptr %this, ptr %this.addr, align 8
  ret void
}

; Function Attrs: mustprogress nounwind uwtable
define linkonce_odr hidden void @_ZN4cvc58internal12NodeTemplateILb0EEC2ERKNS1_ILb1EEE(ptr noundef nonnull align 8 dereferenceable(8) %this, ptr noundef nonnull align 8 dereferenceable(8) %e) unnamed_addr #5 comdat align 2 {
entry:
  %this.addr = alloca ptr, align 8
  %e.addr = alloca ptr, align 8
  store ptr %this, ptr %this.addr, align 8
  store ptr %e, ptr %e.addr, align 8
  %this1 = load ptr, ptr %this.addr, align 8
  %0 = load ptr, ptr %e.addr, align 8
  %d_nv = getelementptr inbounds %"class.cvc5::internal::NodeTemplate", ptr %0, i32 0, i32 0
  %1 = load ptr, ptr %d_nv, align 8
  %d_nv2 = getelementptr inbounds %"class.cvc5::internal::NodeTemplate.218", ptr %this1, i32 0, i32 0
  store ptr %1, ptr %d_nv2, align 8
  ret void
}

; Function Attrs: mustprogress uwtable
define hidden noundef zeroext i1 @_ZN4cvc58internal6theory5arith2nl11SortNlModelclENS0_12NodeTemplateILb1EEES6_(ptr noundef nonnull align 8 dereferenceable(11) %this, ptr noundef %i, ptr noundef %j) #4 align 2 personality ptr @__gxx_personality_v0 {
entry:
  %retval = alloca i1, align 1
  %this.addr = alloca ptr, align 8
  %i.indirect_addr = alloca ptr, align 8
  %j.indirect_addr = alloca ptr, align 8
  %cv = alloca i32, align 4
  %agg.tmp = alloca %"class.cvc5::internal::NodeTemplate.218", align 8
  %agg.tmp2 = alloca %"class.cvc5::internal::NodeTemplate.218", align 8
  %exn.slot = alloca ptr, align 8
  %ehselector.slot = alloca i32, align 4
  store ptr %this, ptr %this.addr, align 8
  store ptr %i, ptr %i.indirect_addr, align 8
  store ptr %j, ptr %j.indirect_addr, align 8
  %this1 = load ptr, ptr %this.addr, align 8
  %d_nlm = getelementptr inbounds %"struct.cvc5::internal::theory::arith::nl::SortNlModel", ptr %this1, i32 0, i32 0
  %0 = load ptr, ptr %d_nlm, align 8
  call void @_ZN4cvc58internal12NodeTemplateILb0EEC2ERKNS1_ILb1EEE(ptr noundef nonnull align 8 dereferenceable(8) %agg.tmp, ptr noundef nonnull align 8 dereferenceable(8) %i)
  invoke void @_ZN4cvc58internal12NodeTemplateILb0EEC2ERKNS1_ILb1EEE(ptr noundef nonnull align 8 dereferenceable(8) %agg.tmp2, ptr noundef nonnull align 8 dereferenceable(8) %j)
          to label %invoke.cont unwind label %lpad

invoke.cont:                                      ; preds = %entry
  %d_isConcrete = getelementptr inbounds %"struct.cvc5::internal::theory::arith::nl::SortNlModel", ptr %this1, i32 0, i32 1
  %1 = load i8, ptr %d_isConcrete, align 8
  %tobool = trunc i8 %1 to i1
  %d_isAbsolute = getelementptr inbounds %"struct.cvc5::internal::theory::arith::nl::SortNlModel", ptr %this1, i32 0, i32 2
  %2 = load i8, ptr %d_isAbsolute, align 1
  %tobool3 = trunc i8 %2 to i1
  %call = invoke noundef i32 @_ZN4cvc58internal6theory5arith2nl7NlModel7compareENS0_12NodeTemplateILb0EEES6_bb(ptr noundef nonnull align 8 dereferenceable(369) %0, ptr noundef %agg.tmp, ptr noundef %agg.tmp2, i1 noundef zeroext %tobool, i1 noundef zeroext %tobool3)
          to label %invoke.cont5 unwind label %lpad4

invoke.cont5:                                     ; preds = %invoke.cont
  call void @_ZN4cvc58internal12NodeTemplateILb0EED2Ev(ptr noundef nonnull align 8 dereferenceable(8) %agg.tmp2) #3
  call void @_ZN4cvc58internal12NodeTemplateILb0EED2Ev(ptr noundef nonnull align 8 dereferenceable(8) %agg.tmp) #3
  store i32 %call, ptr %cv, align 4
  %3 = load i32, ptr %cv, align 4
  %cmp = icmp eq i32 %3, 0
  br i1 %cmp, label %if.then, label %if.end

if.then:                                          ; preds = %invoke.cont5
  %call6 = call noundef zeroext i1 @_ZNK4cvc58internal12NodeTemplateILb1EEltILb1EEEbRKNS1_IXT_EEE(ptr noundef nonnull align 8 dereferenceable(8) %i, ptr noundef nonnull align 8 dereferenceable(8) %j)
  store i1 %call6, ptr %retval, align 1
  br label %return

lpad:                                             ; preds = %entry
  %4 = landingpad { ptr, i32 }
          cleanup
  %5 = extractvalue { ptr, i32 } %4, 0
  store ptr %5, ptr %exn.slot, align 8
  %6 = extractvalue { ptr, i32 } %4, 1
  store i32 %6, ptr %ehselector.slot, align 4
  br label %ehcleanup

lpad4:                                            ; preds = %invoke.cont
  %7 = landingpad { ptr, i32 }
          cleanup
  %8 = extractvalue { ptr, i32 } %7, 0
  store ptr %8, ptr %exn.slot, align 8
  %9 = extractvalue { ptr, i32 } %7, 1
  store i32 %9, ptr %ehselector.slot, align 4
  call void @_ZN4cvc58internal12NodeTemplateILb0EED2Ev(ptr noundef nonnull align 8 dereferenceable(8) %agg.tmp2) #3
  br label %ehcleanup

ehcleanup:                                        ; preds = %lpad4, %lpad
  call void @_ZN4cvc58internal12NodeTemplateILb0EED2Ev(ptr noundef nonnull align 8 dereferenceable(8) %agg.tmp) #3
  br label %eh.resume

if.end:                                           ; preds = %invoke.cont5
  %d_reverse_order = getelementptr inbounds %"struct.cvc5::internal::theory::arith::nl::SortNlModel", ptr %this1, i32 0, i32 3
  %10 = load i8, ptr %d_reverse_order, align 2
  %tobool7 = trunc i8 %10 to i1
  br i1 %tobool7, label %cond.true, label %cond.false

cond.true:                                        ; preds = %if.end
  %11 = load i32, ptr %cv, align 4
  %cmp8 = icmp sgt i32 %11, 0
  br label %cond.end

cond.false:                                       ; preds = %if.end
  %12 = load i32, ptr %cv, align 4
  %cmp9 = icmp slt i32 %12, 0
  br label %cond.end

cond.end:                                         ; preds = %cond.false, %cond.true
  %cond = phi i1 [ %cmp8, %cond.true ], [ %cmp9, %cond.false ]
  store i1 %cond, ptr %retval, align 1
  br label %return

return:                                           ; preds = %cond.end, %if.then
  %13 = load i1, ptr %retval, align 1
  ret i1 %13

eh.resume:                                        ; preds = %ehcleanup
  %exn = load ptr, ptr %exn.slot, align 8
  %sel = load i32, ptr %ehselector.slot, align 4
  %lpad.val = insertvalue { ptr, i32 } poison, ptr %exn, 0
  %lpad.val10 = insertvalue { ptr, i32 } %lpad.val, i32 %sel, 1
  resume { ptr, i32 } %lpad.val10
}